target datalayout = "e-m:e-p270:32:32-p271:32:32-p272:64:64-i64:64-i128:128-f80:128-n8:16:32:64-S128"
target triple = "x86_64-pc-linux-gnu"

%struct.H5C_t = type { i8, ptr, ptr, i32, ptr, i64, i64, ptr, i8, ptr, i8, i8, i32, i64, [6 x i32], [6 x i64], i64, [6 x i64], i64, [6 x i64], [65536 x ptr], i32, i64, ptr, ptr, i64, ptr, ptr, i8, i8, i32, i64, [6 x i32], [6 x i64], ptr, i32, ptr, i8, i32, i32, i64, ptr, ptr, i32, i64, ptr, ptr, i32, i64, ptr, ptr, i8, i8, i64, i8, i8, i8, i8, i8, i8, %struct.H5C_auto_size_ctl_t, i32, [10 x i8], [11 x i32], i32, i32, i32, [10 x %struct.H5C_cache_entry_t], i64, i64, %struct.H5C_cache_image_ctl_t, i8, i8, i8, i8, i64, i64, i64, i64, i64, i64, i64, i32, ptr, ptr, i8, i8, [32 x i8] }
%struct.H5C_auto_size_ctl_t = type { i32, ptr, i8, i64, double, i64, i64, i64, i32, double, double, i8, i64, i32, double, double, i32, double, double, i8, i64, i32, i8, double }
%struct.H5C_cache_entry_t = type { ptr, i64, i64, ptr, i8, ptr, i8, i8, i8, i8, i32, i8, i8, i8, i8, i8, i32, ptr, i32, i32, i32, i32, i32, i8, i8, ptr, ptr, ptr, ptr, ptr, ptr, i8, i32, i8, i64, ptr, i64, i64, i32, i8, i32, i32, i8, ptr, ptr, ptr }
%struct.H5C_cache_image_ctl_t = type { i32, i8, i8, i32, i32 }
%struct.H5C_log_info_t = type { i8, i8, ptr, ptr }

@.str = private unnamed_addr constant [100 x i8] c"generated/home/dtcxzyw/WorkSpace/Projects/compilers/llvm-opt-benchmark/bench/hdf5/hdf5/src/H5Clog.c\00", align 1
@__func__.H5C_log_set_up = private unnamed_addr constant [15 x i8] c"H5C_log_set_up\00", align 1
@H5E_CACHE_g = external global i64, align 8
@H5E_LOGGING_g = external global i64, align 8
@.str.1 = private unnamed_addr constant [23 x i8] c"logging already set up\00", align 1
@.str.2 = private unnamed_addr constant [30 x i8] c"unable to set up json logging\00", align 1
@.str.3 = private unnamed_addr constant [31 x i8] c"unable to set up trace logging\00", align 1
@.str.4 = private unnamed_addr constant [22 x i8] c"unknown logging style\00", align 1
@.str.5 = private unnamed_addr constant [24 x i8] c"unable to start logging\00", align 1

; Function Attrs: nounwind uwtable
define i32 @H5C_log_set_up(ptr noundef %0, ptr noundef %1, i32 noundef %2, i1 noundef zeroext %3) #0 {
  %5 = alloca ptr, align 8
  %6 = alloca ptr, align 8
  %7 = alloca i32, align 4
  %8 = alloca i8, align 1
  %9 = alloca i32, align 4
  %10 = alloca i32, align 4
  %11 = alloca i8, align 1
  store ptr %0, ptr %5, align 8
  store ptr %1, ptr %6, align 8
  store i32 %2, ptr %7, align 4
  %12 = zext i1 %3 to i8
  store i8 %12, ptr %8, align 1
  store i32 -1, ptr %9, align 4
  store i32 0, ptr %10, align 4
  store i8 0, ptr %11, align 1
  %13 = load ptr, ptr %5, align 8
  %14 = getelementptr inbounds %struct.H5C_t, ptr %13, i32 0, i32 1
  %15 = load ptr, ptr %14, align 8
  %16 = getelementptr inbounds %struct.H5C_log_info_t, ptr %15, i32 0, i32 0
  %17 = load i8, ptr %16, align 8
  %18 = trunc i8 %17 to i1
  br i1 %18, label %19, label %34

19:                                               ; preds = %4
  br label %20

20:                                               ; preds = %19
  br label %21

21:                                               ; preds = %20
  br label %22

22:                                               ; preds = %21
  %23 = load i64, ptr @H5E_CACHE_g, align 8
  %24 = load i64, ptr @H5E_LOGGING_g, align 8
  %25 = call i32 (ptr, ptr, i32, i64, i64, ptr, ...) @H5E_printf_stack(ptr noundef @.str, ptr noundef @__func__.H5C_log_set_up, i32 noundef 88, i64 noundef %23, i64 noundef %24, ptr noundef @.str.1)
  br label %26

26:                                               ; preds = %22
  store i8 1, ptr %11, align 1
  %27 = load i8, ptr %11, align 1
  %28 = trunc i8 %27 to i1
  %29 = zext i1 %28 to i8
  store i8 %29, ptr %11, align 1
  br label %30

30:                                               ; preds = %26
  br label %31

31:                                               ; preds = %30
  store i32 -1, ptr %10, align 4
  br label %132

32:                                               ; No predecessors!
  br label %33

33:                                               ; preds = %32
  br label %34

34:                                               ; preds = %33, %4
  %35 = load i32, ptr %7, align 4
  %36 = icmp eq i32 0, %35
  br i1 %36, label %37, label %61

37:                                               ; preds = %34
  %38 = load ptr, ptr %5, align 8
  %39 = getelementptr inbounds %struct.H5C_t, ptr %38, i32 0, i32 1
  %40 = load ptr, ptr %39, align 8
  %41 = load ptr, ptr %6, align 8
  %42 = load i32, ptr %9, align 4
  %43 = call i32 @H5C__log_json_set_up(ptr noundef %40, ptr noundef %41, i32 noundef %42)
  %44 = icmp slt i32 %43, 0
  br i1 %44, label %45, label %60

45:                                               ; preds = %37
  br label %46

46:                                               ; preds = %45
  br label %47

47:                                               ; preds = %46
  br label %48

48:                                               ; preds = %47
  %49 = load i64, ptr @H5E_CACHE_g, align 8
  %50 = load i64, ptr @H5E_LOGGING_g, align 8
  %51 = call i32 (ptr, ptr, i32, i64, i64, ptr, ...) @H5E_printf_stack(ptr noundef @.str, ptr noundef @__func__.H5C_log_set_up, i32 noundef 101, i64 noundef %49, i64 noundef %50, ptr noundef @.str.2)
  br label %52

52:                                               ; preds = %48
  store i8 1, ptr %11, align 1
  %53 = load i8, ptr %11, align 1
  %54 = trunc i8 %53 to i1
  %55 = zext i1 %54 to i8
  store i8 %55, ptr %11, align 1
  br label %56

56:                                               ; preds = %52
  br label %57

57:                                               ; preds = %56
  store i32 -1, ptr %10, align 4
  br label %132

58:                                               ; No predecessors!
  br label %59

59:                                               ; preds = %58
  br label %60

60:                                               ; preds = %59, %37
  br label %104

61:                                               ; preds = %34
  %62 = load i32, ptr %7, align 4
  %63 = icmp eq i32 1, %62
  br i1 %63, label %64, label %88

64:                                               ; preds = %61
  %65 = load ptr, ptr %5, align 8
  %66 = getelementptr inbounds %struct.H5C_t, ptr %65, i32 0, i32 1
  %67 = load ptr, ptr %66, align 8
  %68 = load ptr, ptr %6, align 8
  %69 = load i32, ptr %9, align 4
  %70 = call i32 @H5C__log_trace_set_up(ptr noundef %67, ptr noundef %68, i32 noundef %69)
  %71 = icmp slt i32 %70, 0
  br i1 %71, label %72, label %87

72:                                               ; preds = %64
  br label %73

73:                                               ; preds = %72
  br label %74

74:                                               ; preds = %73
  br label %75

75:                                               ; preds = %74
  %76 = load i64, ptr @H5E_CACHE_g, align 8
  %77 = load i64, ptr @H5E_LOGGING_g, align 8
  %78 = call i32 (ptr, ptr, i32, i64, i64, ptr, ...) @H5E_printf_stack(ptr noundef @.str, ptr noundef @__func__.H5C_log_set_up, i32 noundef 105, i64 noundef %76, i64 noundef %77, ptr noundef @.str.3)
  br label %79

79:                                               ; preds = %75
  store i8 1, ptr %11, align 1
  %80 = load i8, ptr %11, align 1
  %81 = trunc i8 %80 to i1
  %82 = zext i1 %81 to i8
  store i8 %82, ptr %11, align 1
  br label %83

83:                                               ; preds = %79
  br label %84

84:                                               ; preds = %83
  store i32 -1, ptr %10, align 4
  br label %132

85:                                               ; No predecessors!
  br label %86

86:                                               ; preds = %85
  br label %87

87:                                               ; preds = %86, %64
  br label %103

88:                                               ; preds = %61
  br label %89

89:                                               ; preds = %88
  br label %90

90:                                               ; preds = %89
  br label %91

91:                                               ; preds = %90
  %92 = load i64, ptr @H5E_CACHE_g, align 8
  %93 = load i64, ptr @H5E_LOGGING_g, align 8
  %94 = call i32 (ptr, ptr, i32, i64, i64, ptr, ...) @H5E_printf_stack(ptr noundef @.str, ptr noundef @__func__.H5C_log_set_up, i32 noundef 108, i64 noundef %92, i64 noundef %93, ptr noundef @.str.4)
  br label %95

95:                                               ; preds = %91
  store i8 1, ptr %11, align 1
  %96 = load i8, ptr %11, align 1
  %97 = trunc i8 %96 to i1
  %98 = zext i1 %97 to i8
  store i8 %98, ptr %11, align 1
  br label %99

99:                                               ; preds = %95
  br label %100

100:                                              ; preds = %99
  store i32 -1, ptr %10, align 4
  br label %132

101:                                              ; No predecessors!
  br label %102

102:                                              ; preds = %101
  br label %103

103:                                              ; preds = %102, %87
  br label %104

104:                                              ; preds = %103, %60
  %105 = load ptr, ptr %5, align 8
  %106 = getelementptr inbounds %struct.H5C_t, ptr %105, i32 0, i32 1
  %107 = load ptr, ptr %106, align 8
  %108 = getelementptr inbounds %struct.H5C_log_info_t, ptr %107, i32 0, i32 0
  store i8 1, ptr %108, align 8
  %109 = load i8, ptr %8, align 1
  %110 = trunc i8 %109 to i1
  br i1 %110, label %111, label %131

111:                                              ; preds = %104
  %112 = load ptr, ptr %5, align 8
  %113 = call i32 @H5C_start_logging(ptr noundef %112)
  %114 = icmp slt i32 %113, 0
  br i1 %114, label %115, label %130

115:                                              ; preds = %111
  br label %116

116:                                              ; preds = %115
  br label %117

117:                                              ; preds = %116
  br label %118

118:                                              ; preds = %117
  %119 = load i64, ptr @H5E_CACHE_g, align 8
  %120 = load i64, ptr @H5E_LOGGING_g, align 8
  %121 = call i32 (ptr, ptr, i32, i64, i64, ptr, ...) @H5E_printf_stack(ptr noundef @.str, ptr noundef @__func__.H5C_log_set_up, i32 noundef 116, i64 noundef %119, i64 noundef %120, ptr noundef @.str.5)
  br label %122

122:                                              ; preds = %118
  store i8 1, ptr %11, align 1
  %123 = load i8, ptr %11, align 1
  %124 = trunc i8 %123 to i1
  %125 = zext i1 %124 to i8
  store i8 %125, ptr %11, align 1
  br label %126

126:                                              ; preds = %122
  br label %127

127:                                              ; preds = %126
  store i32 -1, ptr %10, align 4
  br label %132

128:                                              ; No predecessors!
  br label %129

129:                                              ; preds = %128
  br label %130

130:                                              ; preds = %129, %111
  br label %131

131:                                              ; preds = %130, %104
  br label %132

132:                                              ; preds = %131, %127, %100, %84, %57, %31
  %133 = load i32, ptr %10, align 4
  ret i32 %133
}