; Function Attrs: nounwind uwtable
define range(i32 -1, 1) i32 @H5C_log_set_up(ptr nocapture noundef readonly %0, ptr noundef %1, i32 noundef %2, i1 noundef zeroext %3) local_unnamed_addr #0 {
  %5 = getelementptr inbounds i8, ptr %0, i64 8
  %6 = load ptr, ptr %5, align 8
  %7 = load i8, ptr %6, align 8
  %8 = trunc i8 %7 to i1
  br i1 %8, label %9, label %13

9:                                                ; preds = %4
  %10 = load i64, ptr @H5E_CACHE_g, align 8
  %11 = load i64, ptr @H5E_LOGGING_g, align 8
  %12 = tail call i32 (ptr, ptr, i32, i64, i64, ptr, ...) @H5E_printf_stack(ptr noundef nonnull @.str, ptr noundef nonnull @__func__.H5C_log_set_up, i32 noundef 88, i64 noundef %10, i64 noundef %11, ptr noundef nonnull @.str.1) #3
  br label %41

13:                                               ; preds = %4
  switch i32 %2, label %28 [
    i32 0, label %14
    i32 1, label %21
  ]

14:                                               ; preds = %13
  %15 = tail call i32 @H5C__log_json_set_up(ptr noundef nonnull %6, ptr noundef %1, i32 noundef -1) #3
  %16 = icmp slt i32 %15, 0
  br i1 %16, label %17, label %32

17:                                               ; preds = %14
  %18 = load i64, ptr @H5E_CACHE_g, align 8
  %19 = load i64, ptr @H5E_LOGGING_g, align 8
  %20 = tail call i32 (ptr, ptr, i32, i64, i64, ptr, ...) @H5E_printf_stack(ptr noundef nonnull @.str, ptr noundef nonnull @__func__.H5C_log_set_up, i32 noundef 101, i64 noundef %18, i64 noundef %19, ptr noundef nonnull @.str.2) #3
  br label %41

21:                                               ; preds = %13
  %22 = tail call i32 @H5C__log_trace_set_up(ptr noundef nonnull %6, ptr noundef %1, i32 noundef -1) #3
  %23 = icmp slt i32 %22, 0
  br i1 %23, label %24, label %32

24:                                               ; preds = %21
  %25 = load i64, ptr @H5E_CACHE_g, align 8
  %26 = load i64, ptr @H5E_LOGGING_g, align 8
  %27 = tail call i32 (ptr, ptr, i32, i64, i64, ptr, ...) @H5E_printf_stack(ptr noundef nonnull @.str, ptr noundef nonnull @__func__.H5C_log_set_up, i32 noundef 105, i64 noundef %25, i64 noundef %26, ptr noundef nonnull @.str.3) #3
  br label %41

28:                                               ; preds = %13
  %29 = load i64, ptr @H5E_CACHE_g, align 8
  %30 = load i64, ptr @H5E_LOGGING_g, align 8
  %31 = tail call i32 (ptr, ptr, i32, i64, i64, ptr, ...) @H5E_printf_stack(ptr noundef nonnull @.str, ptr noundef nonnull @__func__.H5C_log_set_up, i32 noundef 108, i64 noundef %29, i64 noundef %30, ptr noundef nonnull @.str.4) #3
  br label %41

32:                                               ; preds = %21, %14
  %33 = load ptr, ptr %5, align 8
  store i8 1, ptr %33, align 8
  br i1 %3, label %34, label %41

34:                                               ; preds = %32
  %35 = tail call i32 @H5C_start_logging(ptr noundef nonnull %0)
  %36 = icmp slt i32 %35, 0
  br i1 %36, label %37, label %41

37:                                               ; preds = %34
  %38 = load i64, ptr @H5E_CACHE_g, align 8
  %39 = load i64, ptr @H5E_LOGGING_g, align 8
  %40 = tail call i32 (ptr, ptr, i32, i64, i64, ptr, ...) @H5E_printf_stack(ptr noundef nonnull @.str, ptr noundef nonnull @__func__.H5C_log_set_up, i32 noundef 116, i64 noundef %38, i64 noundef %39, ptr noundef nonnull @.str.5) #3
  br label %41

41:                                               ; preds = %32, %34, %37, %28, %24, %17, %9
  %.0 = phi i32 [ -1, %9 ], [ -1, %17 ], [ -1, %37 ], [ 0, %34 ], [ 0, %32 ], [ -1, %24 ], [ -1, %28 ]
  ret i32 %.0
}